; Function Attrs: nounwind sspstrong uwtable
define internal noundef zeroext i1 @qobject_input_start_struct(ptr noundef captures(none) %v, ptr noundef %name, ptr noundef %obj, i64 noundef %size, ptr noundef %errp) #0 {
entry:
  %call.i = tail call fastcc ptr @qobject_input_try_get_object(ptr noundef %v, ptr noundef %name, i1 noundef zeroext true)
  %tobool1.not.i = icmp eq ptr %call.i, null
  br i1 %tobool1.not.i, label %if.then.i, label %qobject_input_get_object.exit

if.then.i:                                        ; preds = %entry
  %call.i.i = tail call fastcc ptr @full_name_nth(ptr noundef %v, ptr noundef %name, i32 noundef 0)
  tail call void (ptr, ptr, i32, ptr, ptr, ...) @error_setg_internal(ptr noundef %errp, ptr noundef nonnull @.str.1, i32 noundef 171, ptr noundef nonnull @__func__.qobject_input_get_object, ptr noundef nonnull @.str.5, ptr noundef %call.i.i) #8
  br label %qobject_input_get_object.exit

qobject_input_get_object.exit:                    ; preds = %entry, %if.then.i
  %tobool.not = icmp eq ptr %obj, null
  br i1 %tobool.not, label %if.end, label %if.then

if.then:                                          ; preds = %qobject_input_get_object.exit
  store ptr null, ptr %obj, align 8
  br label %if.end

if.end:                                           ; preds = %if.then, %qobject_input_get_object.exit
  br i1 %tobool1.not.i, label %return, label %if.end4

if.end4:                                          ; preds = %if.end
  %call1.val = load i32, ptr %call.i, align 8
  %0 = add i32 %call1.val, -1
  %or.cond.i = icmp ult i32 %0, 6
  br i1 %or.cond.i, label %qobject_type.exit, label %if.else.i

if.else.i:                                        ; preds = %if.end4
  tail call void @__assert_fail(ptr noundef nonnull @.str.12, ptr noundef nonnull @.str.13, i32 noundef 126, ptr noundef nonnull @__PRETTY_FUNCTION__.qobject_type) #7
  unreachable

qobject_type.exit:                                ; preds = %if.end4
  %cmp.not = icmp eq i32 %call1.val, 4
  br i1 %cmp.not, label %if.end8, label %if.then6

if.then6:                                         ; preds = %qobject_type.exit
  %call.i12 = tail call fastcc ptr @full_name_nth(ptr noundef %v, ptr noundef %name, i32 noundef 0)
  tail call void (ptr, ptr, i32, ptr, ptr, ...) @error_setg_internal(ptr noundef %errp, ptr noundef nonnull @.str.1, i32 noundef 292, ptr noundef nonnull @__func__.qobject_input_start_struct, ptr noundef nonnull @.str.3, ptr noundef %call.i12, ptr noundef nonnull @.str.4) #8
  br label %return

if.end8:                                          ; preds = %qobject_type.exit
  %call9 = tail call fastcc ptr @qobject_input_push(ptr noundef %v, ptr noundef %name, ptr noundef %call.i, ptr noundef %obj)
  br i1 %tobool.not, label %return, label %if.then11

if.then11:                                        ; preds = %if.end8
  %call12 = tail call noalias ptr @g_malloc0(i64 noundef %size) #6
  store ptr %call12, ptr %obj, align 8
  br label %return

return:                                           ; preds = %if.end8, %if.then11, %if.end, %if.then6
  %retval.0 = phi i1 [ false, %if.then6 ], [ false, %if.end ], [ true, %if.then11 ], [ true, %if.end8 ]
  ret i1 %retval.0
}